target datalayout = "e-m:e-p270:32:32-p271:32:32-p272:64:64-i64:64-i128:128-f80:128-n8:16:32:64-S128"
target triple = "x86_64-pc-linux-gnu"

%class.StackBase = type { i64, i64, i64, i64, i64, i64 }
%class.PreservedMarksSet = type { i8, i32, ptr }
%class.markWord = type { i64 }
%class.PreservedMark = type { ptr, %class.markWord }
%class.Padded = type { %class.PreservedMarks, [256 x i8] }
%class.PreservedMarks = type { %class.Stack.1 }
%class.Stack.1 = type { ptr, %class.StackBase, ptr, ptr }

@_ZN12SerialFullGC29_preserved_overflow_stack_setE = hidden global %class.PreservedMarksSet zeroinitializer, align 8
@_ZN12SerialFullGC16_preserved_countE = hidden global i64 0, align 8
@_ZN12SerialFullGC20_preserved_count_maxE = hidden global i64 0, align 8
@_ZN12SerialFullGC16_preserved_marksE = hidden global ptr null, align 8

; Function Attrs: mustprogress nounwind uwtable
define linkonce_odr hidden noundef i64 @_Z10align_downImmTnNSt9enable_ifIXcvbsr3std11is_integralIT_EE5valueEiE4typeELi0EES1_S1_T0_(i64 noundef %0, i64 noundef %1) #1 comdat {
  %3 = alloca i64, align 8
  %4 = alloca i64, align 8
  %5 = alloca i64, align 8
  store i64 %0, ptr %3, align 8
  store i64 %1, ptr %4, align 8
  %6 = load i64, ptr %3, align 8
  %7 = load i64, ptr %4, align 8
  %8 = call noundef i64 @_ZL14alignment_maskImTnNSt9enable_ifIXcvbsr3std11is_integralIT_EE5valueEiE4typeELi0EES1_S1_(i64 noundef %7)
  %9 = xor i64 %8, -1
  %10 = and i64 %6, %9
  store i64 %10, ptr %5, align 8
  %11 = load i64, ptr %5, align 8
  ret i64 %11
}

; Function Attrs: mustprogress nounwind uwtable
define linkonce_odr hidden noundef i64 @_Z12checked_castImmET_T0_(i64 noundef %0) #1 comdat {
  %2 = alloca i64, align 8
  %3 = alloca i64, align 8
  store i64 %0, ptr %2, align 8
  %4 = load i64, ptr %2, align 8
  store i64 %4, ptr %3, align 8
  %5 = load i64, ptr %3, align 8
  ret i64 %5
}

; Function Attrs: mustprogress nounwind uwtable
define internal noundef i64 @_ZL14alignment_maskImTnNSt9enable_ifIXcvbsr3std11is_integralIT_EE5valueEiE4typeELi0EES1_S1_(i64 noundef %0) #1 {
  %2 = alloca i64, align 8
  store i64 %0, ptr %2, align 8
  %3 = load i64, ptr %2, align 8
  %4 = sub i64 %3, 1
  ret i64 %4
}

; Function Attrs: mustprogress nounwind uwtable
define linkonce_odr hidden noundef i64 @_Z8align_upImmTnNSt9enable_ifIXcvbsr3std11is_integralIT_EE5valueEiE4typeELi0EES1_S1_T0_(i64 noundef %0, i64 noundef %1) #1 comdat {
  %3 = alloca i64, align 8
  %4 = alloca i64, align 8
  %5 = alloca i64, align 8
  store i64 %0, ptr %3, align 8
  store i64 %1, ptr %4, align 8
  %6 = load i64, ptr %3, align 8
  %7 = load i64, ptr %4, align 8
  %8 = call noundef i64 @_ZL14alignment_maskImTnNSt9enable_ifIXcvbsr3std11is_integralIT_EE5valueEiE4typeELi0EES1_S1_(i64 noundef %7)
  %9 = add i64 %6, %8
  %10 = call noundef i64 @_Z12checked_castImmET_T0_(i64 noundef %9)
  store i64 %10, ptr %5, align 8
  %11 = load i64, ptr %5, align 8
  %12 = load i64, ptr %4, align 8
  %13 = call noundef i64 @_Z10align_downImmTnNSt9enable_ifIXcvbsr3std11is_integralIT_EE5valueEiE4typeELi0EES1_S1_T0_(i64 noundef %11, i64 noundef %12)
  ret i64 %13
}

; Function Attrs: mustprogress nounwind uwtable
define linkonce_odr hidden noundef i64 @_ZNK5StackI13PreservedMarkL8MEMFLAGS5EE11link_offsetEv(ptr noundef nonnull align 8 dereferenceable(72) %0) #1 comdat align 2 {
  %2 = alloca ptr, align 8
  store ptr %0, ptr %2, align 8
  %3 = load ptr, ptr %2, align 8
  %4 = getelementptr inbounds i8, ptr %3, i64 8
  %5 = getelementptr inbounds %class.StackBase, ptr %4, i32 0, i32 0
  %6 = load i64, ptr %5, align 8
  %7 = mul i64 %6, 16
  %8 = call noundef i64 @_Z8align_upImmTnNSt9enable_ifIXcvbsr3std11is_integralIT_EE5valueEiE4typeELi0EES1_S1_T0_(i64 noundef %7, i64 noundef 8)
  ret i64 %8
}

; Function Attrs: mustprogress nounwind uwtable
define linkonce_odr hidden noundef ptr @_ZNK5StackI13PreservedMarkL8MEMFLAGS5EE9link_addrEPS0_(ptr noundef nonnull align 8 dereferenceable(72) %0, ptr noundef %1) #1 comdat align 2 {
  %3 = alloca ptr, align 8
  %4 = alloca ptr, align 8
  store ptr %0, ptr %3, align 8
  store ptr %1, ptr %4, align 8
  %5 = load ptr, ptr %3, align 8
  %6 = load ptr, ptr %4, align 8
  %7 = call noundef i64 @_ZNK5StackI13PreservedMarkL8MEMFLAGS5EE11link_offsetEv(ptr noundef nonnull align 8 dereferenceable(72) %5)
  %8 = getelementptr inbounds i8, ptr %6, i64 %7
  ret ptr %8
}

; Function Attrs: mustprogress nounwind uwtable
define linkonce_odr hidden noundef ptr @_ZN5StackI13PreservedMarkL8MEMFLAGS5EE8set_linkEPS0_S3_(ptr noundef nonnull align 8 dereferenceable(72) %0, ptr noundef %1, ptr noundef %2) #1 comdat align 2 {
  %4 = alloca ptr, align 8
  %5 = alloca ptr, align 8
  %6 = alloca ptr, align 8
  store ptr %0, ptr %4, align 8
  store ptr %1, ptr %5, align 8
  store ptr %2, ptr %6, align 8
  %7 = load ptr, ptr %4, align 8
  %8 = load ptr, ptr %6, align 8
  %9 = load ptr, ptr %5, align 8
  %10 = call noundef ptr @_ZNK5StackI13PreservedMarkL8MEMFLAGS5EE9link_addrEPS0_(ptr noundef nonnull align 8 dereferenceable(72) %7, ptr noundef %9)
  store ptr %8, ptr %10, align 8
  %11 = load ptr, ptr %5, align 8
  ret ptr %11
}

; Function Attrs: mustprogress nounwind uwtable
define linkonce_odr hidden noundef zeroext i1 @_ZNK5StackI13PreservedMarkL8MEMFLAGS5EE8is_emptyEv(ptr noundef nonnull align 8 dereferenceable(72) %0) #1 comdat align 2 {
  %2 = alloca ptr, align 8
  store ptr %0, ptr %2, align 8
  %3 = load ptr, ptr %2, align 8
  %4 = getelementptr inbounds %class.Stack.1, ptr %3, i32 0, i32 2
  %5 = load ptr, ptr %4, align 8
  %6 = icmp eq ptr %5, null
  ret i1 %6
}

; Function Attrs: mustprogress nounwind uwtable
define linkonce_odr hidden noundef i64 @_ZNK5StackI13PreservedMarkL8MEMFLAGS5EE13segment_bytesEv(ptr noundef nonnull align 8 dereferenceable(72) %0) #1 comdat align 2 {
  %2 = alloca ptr, align 8
  store ptr %0, ptr %2, align 8
  %3 = load ptr, ptr %2, align 8
  %4 = call noundef i64 @_ZNK5StackI13PreservedMarkL8MEMFLAGS5EE11link_offsetEv(ptr noundef nonnull align 8 dereferenceable(72) %3)
  %5 = add i64 %4, 8
  ret i64 %5
}

; Function Attrs: mustprogress nounwind uwtable
define linkonce_odr hidden noundef ptr @_ZNK5StackI13PreservedMarkL8MEMFLAGS5EE8get_linkEPS0_(ptr noundef nonnull align 8 dereferenceable(72) %0, ptr noundef %1) #1 comdat align 2 {
  %3 = alloca ptr, align 8
  %4 = alloca ptr, align 8
  store ptr %0, ptr %3, align 8
  store ptr %1, ptr %4, align 8
  %5 = load ptr, ptr %3, align 8
  %6 = load ptr, ptr %4, align 8
  %7 = call noundef ptr @_ZNK5StackI13PreservedMarkL8MEMFLAGS5EE9link_addrEPS0_(ptr noundef nonnull align 8 dereferenceable(72) %5, ptr noundef %6)
  %8 = load ptr, ptr %7, align 8
  ret ptr %8
}

; Function Attrs: mustprogress nounwind uwtable
define linkonce_odr hidden void @_ZN5StackI13PreservedMarkL8MEMFLAGS5EE12push_segmentEv(ptr noundef nonnull align 8 dereferenceable(72) %0) #1 comdat align 2 {
  %2 = alloca ptr, align 8
  %3 = alloca ptr, align 8
  %4 = alloca i8, align 1
  store ptr %0, ptr %2, align 8
  %5 = load ptr, ptr %2, align 8
  %6 = getelementptr inbounds i8, ptr %5, i64 8
  %7 = getelementptr inbounds %class.StackBase, ptr %6, i32 0, i32 5
  %8 = load i64, ptr %7, align 8
  %9 = icmp ugt i64 %8, 0
  br i1 %9, label %10, label %21

10:                                               ; preds = %1
  %11 = getelementptr inbounds %class.Stack.1, ptr %5, i32 0, i32 3
  %12 = load ptr, ptr %11, align 8
  store ptr %12, ptr %3, align 8
  %13 = getelementptr inbounds %class.Stack.1, ptr %5, i32 0, i32 3
  %14 = load ptr, ptr %13, align 8
  %15 = call noundef ptr @_ZNK5StackI13PreservedMarkL8MEMFLAGS5EE8get_linkEPS0_(ptr noundef nonnull align 8 dereferenceable(72) %5, ptr noundef %14)
  %16 = getelementptr inbounds %class.Stack.1, ptr %5, i32 0, i32 3
  store ptr %15, ptr %16, align 8
  %17 = getelementptr inbounds i8, ptr %5, i64 8
  %18 = getelementptr inbounds %class.StackBase, ptr %17, i32 0, i32 5
  %19 = load i64, ptr %18, align 8
  %20 = add i64 %19, -1
  store i64 %20, ptr %18, align 8
  br label %27

21:                                               ; preds = %1
  %22 = call noundef i64 @_ZNK5StackI13PreservedMarkL8MEMFLAGS5EE13segment_bytesEv(ptr noundef nonnull align 8 dereferenceable(72) %5)
  %23 = load ptr, ptr %5, align 8
  %24 = getelementptr inbounds ptr, ptr %23, i64 0
  %25 = load ptr, ptr %24, align 8
  %26 = call noundef ptr %25(ptr noundef nonnull align 8 dereferenceable(72) %5, i64 noundef %22)
  store ptr %26, ptr %3, align 8
  br label %27

27:                                               ; preds = %21, %10
  %28 = call noundef zeroext i1 @_ZNK5StackI13PreservedMarkL8MEMFLAGS5EE8is_emptyEv(ptr noundef nonnull align 8 dereferenceable(72) %5)
  %29 = zext i1 %28 to i8
  store i8 %29, ptr %4, align 1
  %30 = load ptr, ptr %3, align 8
  %31 = getelementptr inbounds %class.Stack.1, ptr %5, i32 0, i32 2
  %32 = load ptr, ptr %31, align 8
  %33 = call noundef ptr @_ZN5StackI13PreservedMarkL8MEMFLAGS5EE8set_linkEPS0_S3_(ptr noundef nonnull align 8 dereferenceable(72) %5, ptr noundef %30, ptr noundef %32)
  %34 = getelementptr inbounds %class.Stack.1, ptr %5, i32 0, i32 2
  store ptr %33, ptr %34, align 8
  %35 = getelementptr inbounds i8, ptr %5, i64 8
  %36 = getelementptr inbounds %class.StackBase, ptr %35, i32 0, i32 3
  store i64 0, ptr %36, align 8
  %37 = load i8, ptr %4, align 1
  %38 = trunc i8 %37 to i1
  br i1 %38, label %39, label %40

39:                                               ; preds = %27
  br label %44

40:                                               ; preds = %27
  %41 = getelementptr inbounds i8, ptr %5, i64 8
  %42 = getelementptr inbounds %class.StackBase, ptr %41, i32 0, i32 0
  %43 = load i64, ptr %42, align 8
  br label %44

44:                                               ; preds = %40, %39
  %45 = phi i64 [ 0, %39 ], [ %43, %40 ]
  %46 = getelementptr inbounds i8, ptr %5, i64 8
  %47 = getelementptr inbounds %class.StackBase, ptr %46, i32 0, i32 4
  %48 = load i64, ptr %47, align 8
  %49 = add i64 %48, %45
  store i64 %49, ptr %47, align 8
  ret void
}

; Function Attrs: mustprogress nounwind uwtable
define linkonce_odr hidden void @_ZN5StackI13PreservedMarkL8MEMFLAGS5EE4pushES0_(ptr noundef nonnull align 8 dereferenceable(72) %0, ptr %1, i64 %2) #1 comdat align 2 {
  %4 = alloca %class.PreservedMark, align 8
  %5 = alloca ptr, align 8
  %6 = alloca i64, align 8
  %7 = getelementptr inbounds { ptr, i64 }, ptr %4, i32 0, i32 0
  store ptr %1, ptr %7, align 8
  %8 = getelementptr inbounds { ptr, i64 }, ptr %4, i32 0, i32 1
  store i64 %2, ptr %8, align 8
  store ptr %0, ptr %5, align 8
  %9 = load ptr, ptr %5, align 8
  %10 = getelementptr inbounds i8, ptr %9, i64 8
  %11 = getelementptr inbounds %class.StackBase, ptr %10, i32 0, i32 3
  %12 = load i64, ptr %11, align 8
  store i64 %12, ptr %6, align 8
  %13 = load i64, ptr %6, align 8
  %14 = getelementptr inbounds i8, ptr %9, i64 8
  %15 = getelementptr inbounds %class.StackBase, ptr %14, i32 0, i32 0
  %16 = load i64, ptr %15, align 8
  %17 = icmp eq i64 %13, %16
  br i1 %17, label %18, label %19

18:                                               ; preds = %3
  call void @_ZN5StackI13PreservedMarkL8MEMFLAGS5EE12push_segmentEv(ptr noundef nonnull align 8 dereferenceable(72) %9)
  store i64 0, ptr %6, align 8
  br label %19

19:                                               ; preds = %18, %3
  %20 = getelementptr inbounds %class.Stack.1, ptr %9, i32 0, i32 2
  %21 = load ptr, ptr %20, align 8
  %22 = load i64, ptr %6, align 8
  %23 = getelementptr inbounds %class.PreservedMark, ptr %21, i64 %22
  call void @llvm.memcpy.p0.p0.i64(ptr align 8 %23, ptr align 8 %4, i64 16, i1 false)
  %24 = load i64, ptr %6, align 8
  %25 = add i64 %24, 1
  %26 = getelementptr inbounds i8, ptr %9, i64 8
  %27 = getelementptr inbounds %class.StackBase, ptr %26, i32 0, i32 3
  store i64 %25, ptr %27, align 8
  ret void
}

; Function Attrs: mustprogress nounwind uwtable
define linkonce_odr hidden void @_ZN14PreservedMarks11push_alwaysEP7oopDesc8markWord(ptr noundef nonnull align 8 dereferenceable(72) %0, ptr noundef %1, i64 %2) #1 comdat align 2 {
  %4 = alloca %class.markWord, align 8
  %5 = alloca ptr, align 8
  %6 = alloca ptr, align 8
  %7 = alloca %class.PreservedMark, align 8
  %8 = alloca %class.markWord, align 8
  %9 = alloca %class.PreservedMark, align 8
  %10 = getelementptr inbounds %class.markWord, ptr %4, i32 0, i32 0
  store i64 %2, ptr %10, align 8
  store ptr %0, ptr %5, align 8
  store ptr %1, ptr %6, align 8
  %11 = load ptr, ptr %5, align 8
  %12 = load ptr, ptr %6, align 8
  call void @llvm.memcpy.p0.p0.i64(ptr align 8 %8, ptr align 8 %4, i64 8, i1 false)
  %13 = getelementptr inbounds %class.markWord, ptr %8, i32 0, i32 0
  %14 = load i64, ptr %13, align 8
  call void @_ZN13PreservedMarkC2EP7oopDesc8markWord(ptr noundef nonnull align 8 dereferenceable(16) %7, ptr noundef %12, i64 %14)
  %15 = getelementptr inbounds %class.PreservedMarks, ptr %11, i32 0, i32 0
  call void @llvm.memcpy.p0.p0.i64(ptr align 8 %9, ptr align 8 %7, i64 16, i1 false)
  %16 = getelementptr inbounds { ptr, i64 }, ptr %9, i32 0, i32 0
  %17 = load ptr, ptr %16, align 8
  %18 = getelementptr inbounds { ptr, i64 }, ptr %9, i32 0, i32 1
  %19 = load i64, ptr %18, align 8
  call void @_ZN5StackI13PreservedMarkL8MEMFLAGS5EE4pushES0_(ptr noundef nonnull align 8 dereferenceable(72) %15, ptr %17, i64 %19)
  ret void
}

; Function Attrs: mustprogress nounwind uwtable
define linkonce_odr hidden noundef ptr @_ZNK17PreservedMarksSet3getEj(ptr noundef nonnull align 8 dereferenceable(16) %0, i32 noundef %1) #1 comdat align 2 {
  %3 = alloca ptr, align 8
  %4 = alloca i32, align 4
  store ptr %0, ptr %3, align 8
  store i32 %1, ptr %4, align 4
  %5 = load ptr, ptr %3, align 8
  %6 = getelementptr inbounds %class.PreservedMarksSet, ptr %5, i32 0, i32 2
  %7 = load ptr, ptr %6, align 8
  %8 = load i32, ptr %4, align 4
  %9 = zext i32 %8 to i64
  %10 = getelementptr inbounds %class.Padded, ptr %7, i64 %9
  ret ptr %10
}

; Function Attrs: mustprogress nounwind uwtable
define linkonce_odr hidden void @_ZN13PreservedMarkC2EP7oopDesc8markWord(ptr noundef nonnull align 8 dereferenceable(16) %0, ptr noundef %1, i64 %2) unnamed_addr #1 comdat align 2 {
  %4 = alloca %class.markWord, align 8
  %5 = alloca ptr, align 8
  %6 = alloca ptr, align 8
  %7 = getelementptr inbounds %class.markWord, ptr %4, i32 0, i32 0
  store i64 %2, ptr %7, align 8
  store ptr %0, ptr %5, align 8
  store ptr %1, ptr %6, align 8
  %8 = load ptr, ptr %5, align 8
  %9 = getelementptr inbounds %class.PreservedMark, ptr %8, i32 0, i32 0
  %10 = load ptr, ptr %6, align 8
  store ptr %10, ptr %9, align 8
  %11 = getelementptr inbounds %class.PreservedMark, ptr %8, i32 0, i32 1
  call void @llvm.memcpy.p0.p0.i64(ptr align 8 %11, ptr align 8 %4, i64 8, i1 false)
  ret void
}

; Function Attrs: mustprogress nounwind uwtable
define hidden void @_ZN12SerialFullGC13preserve_markEP7oopDesc8markWord(ptr noundef %0, i64 %1) #1 align 2 {
  %3 = alloca %class.markWord, align 8
  %4 = alloca ptr, align 8
  %5 = alloca %class.PreservedMark, align 8
  %6 = alloca %class.markWord, align 8
  %7 = alloca %class.markWord, align 8
  %8 = getelementptr inbounds %class.markWord, ptr %3, i32 0, i32 0
  store i64 %1, ptr %8, align 8
  store ptr %0, ptr %4, align 8
  %9 = load i64, ptr @_ZN12SerialFullGC16_preserved_countE, align 8
  %10 = load i64, ptr @_ZN12SerialFullGC20_preserved_count_maxE, align 8
  %11 = icmp ult i64 %9, %10
  br i1 %11, label %12, label %20

12:                                               ; preds = %2
  %13 = load ptr, ptr %4, align 8
  call void @llvm.memcpy.p0.p0.i64(ptr align 8 %6, ptr align 8 %3, i64 8, i1 false)
  %14 = getelementptr inbounds %class.markWord, ptr %6, i32 0, i32 0
  %15 = load i64, ptr %14, align 8
  call void @_ZN13PreservedMarkC2EP7oopDesc8markWord(ptr noundef nonnull align 8 dereferenceable(16) %5, ptr noundef %13, i64 %15)
  %16 = load ptr, ptr @_ZN12SerialFullGC16_preserved_marksE, align 8
  %17 = load i64, ptr @_ZN12SerialFullGC16_preserved_countE, align 8
  %18 = add i64 %17, 1
  store i64 %18, ptr @_ZN12SerialFullGC16_preserved_countE, align 8
  %19 = getelementptr inbounds %class.PreservedMark, ptr %16, i64 %17
  call void @llvm.memcpy.p0.p0.i64(ptr align 8 %19, ptr align 8 %5, i64 16, i1 false)
  br label %25

20:                                               ; preds = %2
  %21 = call noundef ptr @_ZNK17PreservedMarksSet3getEj(ptr noundef nonnull align 8 dereferenceable(16) @_ZN12SerialFullGC29_preserved_overflow_stack_setE, i32 noundef 0)
  %22 = load ptr, ptr %4, align 8
  call void @llvm.memcpy.p0.p0.i64(ptr align 8 %7, ptr align 8 %3, i64 8, i1 false)
  %23 = getelementptr inbounds %class.markWord, ptr %7, i32 0, i32 0
  %24 = load i64, ptr %23, align 8
  call void @_ZN14PreservedMarks11push_alwaysEP7oopDesc8markWord(ptr noundef nonnull align 8 dereferenceable(72) %21, ptr noundef %22, i64 %24)
  br label %25

25:                                               ; preds = %20, %12
  ret void
}