; Function Attrs: mustprogress nounwind uwtable
define hidden void @_ZN12SerialFullGC13preserve_markEP7oopDesc8markWord(ptr noundef %0, i64 %1) local_unnamed_addr #0 align 2 {
  %3 = load i64, ptr @_ZN12SerialFullGC16_preserved_countE, align 8
  %4 = load i64, ptr @_ZN12SerialFullGC20_preserved_count_maxE, align 8
  %5 = icmp ult i64 %3, %4
  br i1 %5, label %6, label %10

6:                                                ; preds = %2
  %7 = load ptr, ptr @_ZN12SerialFullGC16_preserved_marksE, align 8
  %8 = add nuw i64 %3, 1
  store i64 %8, ptr @_ZN12SerialFullGC16_preserved_countE, align 8
  %9 = getelementptr inbounds %class.PreservedMark, ptr %7, i64 %3
  store ptr %0, ptr %9, align 8
  %.sroa.2.0..sroa_idx = getelementptr inbounds i8, ptr %9, i64 8
  store i64 %1, ptr %.sroa.2.0..sroa_idx, align 8
  br label %44

10:                                               ; preds = %2
  %11 = load ptr, ptr getelementptr inbounds (i8, ptr @_ZN12SerialFullGC29_preserved_overflow_stack_setE, i64 8), align 8
  %12 = getelementptr inbounds i8, ptr %11, i64 8
  %13 = getelementptr inbounds i8, ptr %11, i64 32
  %14 = load i64, ptr %13, align 8
  %15 = load i64, ptr %12, align 8
  %16 = icmp eq i64 %14, %15
  br i1 %16, label %17, label %._crit_edge.i.i

._crit_edge.i.i:                                  ; preds = %10
  %.phi.trans.insert.i.i = getelementptr inbounds i8, ptr %11, i64 56
  %.pre.i.i = load ptr, ptr %.phi.trans.insert.i.i, align 8
  br label %_ZN14PreservedMarks11push_alwaysEP7oopDesc8markWord.exit

17:                                               ; preds = %10
  %18 = getelementptr inbounds i8, ptr %11, i64 48
  %19 = load i64, ptr %18, align 8
  %.not.i.i.i = icmp eq i64 %19, 0
  br i1 %.not.i.i.i, label %27, label %20

20:                                               ; preds = %17
  %21 = getelementptr inbounds i8, ptr %11, i64 64
  %22 = load ptr, ptr %21, align 8
  %23 = shl i64 %14, 4
  %24 = getelementptr inbounds i8, ptr %22, i64 %23
  %25 = load ptr, ptr %24, align 8
  store ptr %25, ptr %21, align 8
  %26 = add i64 %19, -1
  store i64 %26, ptr %18, align 8
  br label %_ZN5StackI13PreservedMarkL8MEMFLAGS5EE12push_segmentEv.exit.i.i

27:                                               ; preds = %17
  %28 = shl i64 %14, 4
  %29 = or disjoint i64 %28, 8
  %30 = load ptr, ptr %11, align 8
  %31 = load ptr, ptr %30, align 8
  %32 = tail call noundef ptr %31(ptr noundef nonnull align 8 dereferenceable(72) %11, i64 noundef %29) #16
  %.pre.i.i.i = load i64, ptr %12, align 8
  %.pre2.i.i.i = shl i64 %.pre.i.i.i, 4
  br label %_ZN5StackI13PreservedMarkL8MEMFLAGS5EE12push_segmentEv.exit.i.i

_ZN5StackI13PreservedMarkL8MEMFLAGS5EE12push_segmentEv.exit.i.i: ; preds = %27, %20
  %.pre-phi.i.i.i = phi i64 [ %.pre2.i.i.i, %27 ], [ %23, %20 ]
  %.0.i.i.i = phi ptr [ %32, %27 ], [ %22, %20 ]
  %33 = getelementptr inbounds i8, ptr %11, i64 56
  %34 = load ptr, ptr %33, align 8
  %35 = icmp eq ptr %34, null
  %36 = getelementptr inbounds i8, ptr %.0.i.i.i, i64 %.pre-phi.i.i.i
  store ptr %34, ptr %36, align 8
  store ptr %.0.i.i.i, ptr %33, align 8
  %37 = load i64, ptr %12, align 8
  %spec.select.i.i.i = select i1 %35, i64 0, i64 %37
  %38 = getelementptr inbounds i8, ptr %11, i64 40
  %39 = load i64, ptr %38, align 8
  %40 = add i64 %39, %spec.select.i.i.i
  store i64 %40, ptr %38, align 8
  br label %_ZN14PreservedMarks11push_alwaysEP7oopDesc8markWord.exit

_ZN14PreservedMarks11push_alwaysEP7oopDesc8markWord.exit: ; preds = %._crit_edge.i.i, %_ZN5StackI13PreservedMarkL8MEMFLAGS5EE12push_segmentEv.exit.i.i
  %41 = phi ptr [ %.0.i.i.i, %_ZN5StackI13PreservedMarkL8MEMFLAGS5EE12push_segmentEv.exit.i.i ], [ %.pre.i.i, %._crit_edge.i.i ]
  %.0.i.i = phi i64 [ 0, %_ZN5StackI13PreservedMarkL8MEMFLAGS5EE12push_segmentEv.exit.i.i ], [ %14, %._crit_edge.i.i ]
  %42 = getelementptr inbounds %class.PreservedMark, ptr %41, i64 %.0.i.i
  store ptr %0, ptr %42, align 8
  %.sroa.2.0..sroa_idx.i.i = getelementptr inbounds i8, ptr %42, i64 8
  store i64 %1, ptr %.sroa.2.0..sroa_idx.i.i, align 8
  %43 = add i64 %.0.i.i, 1
  store i64 %43, ptr %13, align 8
  br label %44

44:                                               ; preds = %_ZN14PreservedMarks11push_alwaysEP7oopDesc8markWord.exit, %6
  ret void
}